Certificate:
    Data:
        Version: 3 (0x2)
        Serial Number:
            5d:62:0a:19:64:59:7f:cd:fc:fb:05:b5:cc:b7:4a:d0
    Signature Algorithm: sha256WithRSAEncryption
        Issuer: C=GB, ST=Greater Manchester, L=Salford, O=COMODO CA Limited, CN=COMODO RSA Domain Validation Secure Server CA
        Validity
            Not Before: Oct 23 00:00:00 2015 GMT
            Not After : Oct 22 23:59:59 2018 GMT
        Subject: OU=Domain Control Validated, OU=EssentialSSL Wildcard, CN=*.cloudatcost.com
        Subject Public Key Info:
            Public Key Algorithm: rsaEncryption
                Public-Key: (2048 bit)
                Modulus:
                    00:cf:42:c8:bf:2e:50:fa:04:df:36:1b:be:7c:2d:
                    51:6e:bd:87:47:fe:ae:43:43:d7:f2:6c:8b:5e:44:
                    10:11:4f:42:a8:98:0a:63:e2:49:a2:4b:9f:a2:41:
                    1e:b8:b7:e2:de:25:02:b1:ab:3c:0e:8a:d3:5c:75:
                    f0:b2:6a:16:86:03:cb:9c:9a:df:b2:7c:05:de:23:
                    17:77:22:8d:67:bf:21:01:16:03:0d:2b:da:e7:e1:
                    77:82:d3:34:cb:c4:c8:92:04:0a:27:5a:2c:c8:41:
                    c6:93:91:45:d8:a3:9a:f1:17:09:ff:43:d0:e1:06:
                    05:5d:ea:7e:2c:dc:08:7e:fe:54:fa:2b:74:26:37:
                    cb:d7:f0:81:b9:34:c0:00:75:94:09:36:f5:a4:68:
                    b0:ad:e0:64:97:1e:bb:9e:d0:62:41:0a:8d:e7:ba:
                    a5:9e:3b:df:ec:69:0a:36:9e:4c:15:25:3e:e1:80:
                    f7:90:36:8c:f7:fc:73:e4:12:3d:e8:1c:cc:e7:7d:
                    1f:0a:38:26:a0:09:4a:34:f3:ce:e1:e2:49:b1:21:
                    77:ef:09:20:2f:cf:e8:66:15:3a:fc:27:36:a0:8f:
                    ba:e5:ec:a0:1c:bc:c4:14:3c:94:7b:99:71:67:79:
                    b2:1e:0c:0d:1b:e6:e5:8c:55:16:16:0d:ea:43:a0:
                    7f:51
                Exponent: 65537 (0x10001)
        X509v3 extensions:
            X509v3 Authority Key Identifier: 
                keyid:90:AF:6A:3A:94:5A:0B:D8:90:EA:12:56:73:DF:43:B4:3A:28:DA:E7

            X509v3 Subject Key Identifier: 
                82:F5:D4:86:A0:81:0F:1C:14:D4:40:98:CE:C7:13:E0:96:14:4B:3C
            X509v3 Key Usage: critical
                Digital Signature, Key Encipherment
            X509v3 Basic Constraints: critical
                CA:FALSE
            X509v3 Extended Key Usage: 
                TLS Web Server Authentication, TLS Web Client Authentication
            X509v3 Certificate Policies: 
                Policy: 1.3.6.1.4.1.6449.1.2.2.7
                  CPS: https://secure.comodo.com/CPS
                Policy: 2.23.140.1.2.1

            X509v3 CRL Distribution Points: 

                Full Name:
                  URI:http://crl.comodoca.com/COMODORSADomainValidationSecureServerCA.crl

            Authority Information Access: 
                CA Issuers - URI:http://crt.comodoca.com/COMODORSADomainValidationSecureServerCA.crt
                OCSP - URI:http://ocsp.comodoca.com

            X509v3 Subject Alternative Name: 
                DNS:*.cloudatcost.com, DNS:cloudatcost.com
    Signature Algorithm: sha256WithRSAEncryption
         3d:f5:17:04:60:d8:39:09:c9:bb:29:26:f0:8f:5c:07:6a:c1:
         15:5b:ed:1e:0c:ca:20:cf:92:5d:1c:ff:8d:1b:78:1c:df:df:
         b1:09:2a:da:62:3c:49:43:e2:81:66:ed:ae:d2:f5:ca:29:b4:
         84:77:53:47:89:ba:be:7e:de:1e:a8:fc:7a:b8:e3:10:9c:b5:
         e8:e7:f2:47:0a:7c:2d:f8:e3:1e:f7:0f:c4:0c:62:45:c1:5d:
         bf:ef:0f:bb:fa:34:ba:6a:ad:c6:64:67:e1:e9:f2:01:95:a1:
         a8:0a:77:4c:18:e4:24:f9:09:82:1f:ed:a0:9a:86:a4:4e:dd:
         37:52:70:d4:01:7b:e6:ba:c0:0d:74:bc:27:97:dc:25:86:50:
         c9:d2:5c:7b:e9:1a:70:c1:cb:87:80:b4:43:7e:cd:81:92:8f:
         7c:cf:bd:8e:cc:a0:a9:8d:c5:86:a8:79:18:8b:7f:09:73:71:
         da:f9:43:3d:03:fc:ed:01:2d:2b:bc:bb:74:21:9d:fc:cc:2b:
         74:a9:14:bc:ea:6c:9a:a5:a2:3b:5f:b4:d8:37:ac:65:27:48:
         a3:0f:d8:5b:ef:1c:52:13:ef:60:ca:a9:33:dc:ca:6e:a5:5d:
         46:3d:c5:24:ae:7a:fb:fc:4d:7c:d5:f9:b6:25:35:d5:51:3b:
         ac:87:04:6f
-----BEGIN CERTIFICATE-----
MIIFWzCCBEOgAwIBAgIQXWIKGWRZf838+wW1zLdK0DANBgkqhkiG9w0BAQsFADCB
kDELMAkGA1UEBhMCR0IxGzAZBgNVBAgTEkdyZWF0ZXIgTWFuY2hlc3RlcjEQMA4G
A1UEBxMHU2FsZm9yZDEaMBgGA1UEChMRQ09NT0RPIENBIExpbWl0ZWQxNjA0BgNV
BAMTLUNPTU9ETyBSU0EgRG9tYWluIFZhbGlkYXRpb24gU2VjdXJlIFNlcnZlciBD
QTAeFw0xNTEwMjMwMDAwMDBaFw0xODEwMjIyMzU5NTlaMF8xITAfBgNVBAsTGERv
bWFpbiBDb250cm9sIFZhbGlkYXRlZDEeMBwGA1UECxMVRXNzZW50aWFsU1NMIFdp
bGRjYXJkMRowGAYDVQQDDBEqLmNsb3VkYXRjb3N0LmNvbTCCASIwDQYJKoZIhvcN
AQEBBQADggEPADCCAQoCggEBAM9CyL8uUPoE3zYbvnwtUW69h0f+rkND1/Jsi15E
EBFPQqiYCmPiSaJLn6JBHri34t4lArGrPA6K01x18LJqFoYDy5ya37J8Bd4jF3ci
jWe/IQEWAw0r2ufhd4LTNMvEyJIECidaLMhBxpORRdijmvEXCf9D0OEGBV3qfizc
CH7+VPordCY3y9fwgbk0wAB1lAk29aRosK3gZJceu57QYkEKjee6pZ473+xpCjae
TBUlPuGA95A2jPf8c+QSPegczOd9Hwo4JqAJSjTzzuHiSbEhd+8JIC/P6GYVOvwn
NqCPuuXsoBy8xBQ8lHuZcWd5sh4MDRvm5YxVFhYN6kOgf1ECAwEAAaOCAd8wggHb
MB8GA1UdIwQYMBaAFJCvajqUWgvYkOoSVnPfQ7Q6KNrnMB0GA1UdDgQWBBSC9dSG
oIEPHBTUQJjOxxPglhRLPDAOBgNVHQ8BAf8EBAMCBaAwDAYDVR0TAQH/BAIwADAd
BgNVHSUEFjAUBggrBgEFBQcDAQYIKwYBBQUHAwIwTwYDVR0gBEgwRjA6BgsrBgEE
AbIxAQICBzArMCkGCCsGAQUFBwIBFh1odHRwczovL3NlY3VyZS5jb21vZG8uY29t
L0NQUzAIBgZngQwBAgEwVAYDVR0fBE0wSzBJoEegRYZDaHR0cDovL2NybC5jb21v
ZG9jYS5jb20vQ09NT0RPUlNBRG9tYWluVmFsaWRhdGlvblNlY3VyZVNlcnZlckNB
LmNybDCBhQYIKwYBBQUHAQEEeTB3ME8GCCsGAQUFBzAChkNodHRwOi8vY3J0LmNv
bW9kb2NhLmNvbS9DT01PRE9SU0FEb21haW5WYWxpZGF0aW9uU2VjdXJlU2VydmVy
Q0EuY3J0MCQGCCsGAQUFBzABhhhodHRwOi8vb2NzcC5jb21vZG9jYS5jb20wLQYD
VR0RBCYwJIIRKi5jbG91ZGF0Y29zdC5jb22CD2Nsb3VkYXRjb3N0LmNvbTANBgkq
hkiG9w0BAQsFAAOCAQEAPfUXBGDYOQnJuykm8I9cB2rBFVvtHgzKIM+SXRz/jRt4
HN/fsQkq2mI8SUPigWbtrtL1yim0hHdTR4m6vn7eHqj8erjjEJy16OfyRwp8Lfjj
HvcPxAxiRcFdv+8Pu/o0umqtxmRn4enyAZWhqAp3TBjkJPkJgh/toJqGpE7dN1Jw
1AF75rrADXS8J5fcJYZQydJce+kacMHLh4C0Q37NgZKPfM+9jsygqY3Fhqh5GIt/
CXNx2vlDPQP87QEtK7y7dCGd/MwrdKkUvOpsmqWiO1+02DesZSdIow/YW+8cUhPv
YMqpM9zKbqVdRj3FJK56+/xNfNX5tiU11VE7rIcEbw==
-----END CERTIFICATE-----
